; Function Attrs: mustprogress nounwind uwtable
define hidden void @_ZN4cvc58internal4Subs5clearEv(ptr noundef nonnull align 8 captures(none) dereferenceable(56) %0) local_unnamed_addr #8 align 2 personality ptr @__gxx_personality_v0 {
  %2 = getelementptr inbounds nuw i8, ptr %0, i64 8
  %3 = load ptr, ptr %2, align 8, !tbaa !10
  %4 = getelementptr inbounds nuw i8, ptr %0, i64 16
  %5 = load ptr, ptr %4, align 8, !tbaa !8
  %.not.i.i = icmp eq ptr %5, %3
  br i1 %.not.i.i, label %_ZNSt6vectorIN4cvc58internal12NodeTemplateILb1EEESaIS3_EE5clearEv.exit, label %.lr.ph.i.i.i.i.i

.lr.ph.i.i.i.i.i:                                 ; preds = %1, %_ZSt8_DestroyIN4cvc58internal12NodeTemplateILb1EEEEvPT_.exit.i.i.i.i.i
  %.05.i.i.i.i.i = phi ptr [ %19, %_ZSt8_DestroyIN4cvc58internal12NodeTemplateILb1EEEEvPT_.exit.i.i.i.i.i ], [ %3, %1 ]
  %6 = load ptr, ptr %.05.i.i.i.i.i, align 8, !tbaa !11
  %7 = load i64, ptr %6, align 8
  %8 = and i64 %7, 1152920405095219200
  %.not.i.i.i.i.i.i.i.i = icmp eq i64 %8, 1152920405095219200
  br i1 %.not.i.i.i.i.i.i.i.i, label %_ZSt8_DestroyIN4cvc58internal12NodeTemplateILb1EEEEvPT_.exit.i.i.i.i.i, label %9, !prof !20

9:                                                ; preds = %.lr.ph.i.i.i.i.i
  %10 = add i64 %7, 1152920405095219200
  %11 = and i64 %10, 1152920405095219200
  %12 = and i64 %7, -1152920405095219201
  %13 = or disjoint i64 %11, %12
  store i64 %13, ptr %6, align 8
  %14 = icmp eq i64 %11, 0
  br i1 %14, label %15, label %_ZSt8_DestroyIN4cvc58internal12NodeTemplateILb1EEEEvPT_.exit.i.i.i.i.i, !prof !20

15:                                               ; preds = %9
  invoke void @_ZN4cvc58internal4expr9NodeValue15markForDeletionEv(ptr noundef nonnull align 8 dereferenceable(24) %6)
          to label %_ZSt8_DestroyIN4cvc58internal12NodeTemplateILb1EEEEvPT_.exit.i.i.i.i.i unwind label %16

16:                                               ; preds = %15
  %17 = landingpad { ptr, i32 }
          catch ptr null
  %18 = extractvalue { ptr, i32 } %17, 0
  tail call void @__clang_call_terminate(ptr %18) #24
  unreachable

_ZSt8_DestroyIN4cvc58internal12NodeTemplateILb1EEEEvPT_.exit.i.i.i.i.i: ; preds = %15, %9, %.lr.ph.i.i.i.i.i
  %19 = getelementptr inbounds nuw i8, ptr %.05.i.i.i.i.i, i64 8
  %.not.i.i.i.i.i = icmp eq ptr %19, %5
  br i1 %.not.i.i.i.i.i, label %_ZSt8_DestroyIPN4cvc58internal12NodeTemplateILb1EEES3_EvT_S5_RSaIT0_E.exit.i.i, label %.lr.ph.i.i.i.i.i, !llvm.loop !103

_ZSt8_DestroyIPN4cvc58internal12NodeTemplateILb1EEES3_EvT_S5_RSaIT0_E.exit.i.i: ; preds = %_ZSt8_DestroyIN4cvc58internal12NodeTemplateILb1EEEEvPT_.exit.i.i.i.i.i
  store ptr %3, ptr %4, align 8, !tbaa !8
  br label %_ZNSt6vectorIN4cvc58internal12NodeTemplateILb1EEESaIS3_EE5clearEv.exit

_ZNSt6vectorIN4cvc58internal12NodeTemplateILb1EEESaIS3_EE5clearEv.exit: ; preds = %1, %_ZSt8_DestroyIPN4cvc58internal12NodeTemplateILb1EEES3_EvT_S5_RSaIT0_E.exit.i.i
  %20 = getelementptr inbounds nuw i8, ptr %0, i64 32
  %21 = load ptr, ptr %20, align 8, !tbaa !10
  %22 = getelementptr inbounds nuw i8, ptr %0, i64 40
  %23 = load ptr, ptr %22, align 8, !tbaa !8
  %.not.i.i1 = icmp eq ptr %23, %21
  br i1 %.not.i.i1, label %_ZNSt6vectorIN4cvc58internal12NodeTemplateILb1EEESaIS3_EE5clearEv.exit8, label %.lr.ph.i.i.i.i.i2

.lr.ph.i.i.i.i.i2:                                ; preds = %_ZNSt6vectorIN4cvc58internal12NodeTemplateILb1EEESaIS3_EE5clearEv.exit, %_ZSt8_DestroyIN4cvc58internal12NodeTemplateILb1EEEEvPT_.exit.i.i.i.i.i5
  %.05.i.i.i.i.i3 = phi ptr [ %37, %_ZSt8_DestroyIN4cvc58internal12NodeTemplateILb1EEEEvPT_.exit.i.i.i.i.i5 ], [ %21, %_ZNSt6vectorIN4cvc58internal12NodeTemplateILb1EEESaIS3_EE5clearEv.exit ]
  %24 = load ptr, ptr %.05.i.i.i.i.i3, align 8, !tbaa !11
  %25 = load i64, ptr %24, align 8
  %26 = and i64 %25, 1152920405095219200
  %.not.i.i.i.i.i.i.i.i4 = icmp eq i64 %26, 1152920405095219200
  br i1 %.not.i.i.i.i.i.i.i.i4, label %_ZSt8_DestroyIN4cvc58internal12NodeTemplateILb1EEEEvPT_.exit.i.i.i.i.i5, label %27, !prof !20

27:                                               ; preds = %.lr.ph.i.i.i.i.i2
  %28 = add i64 %25, 1152920405095219200
  %29 = and i64 %28, 1152920405095219200
  %30 = and i64 %25, -1152920405095219201
  %31 = or disjoint i64 %29, %30
  store i64 %31, ptr %24, align 8
  %32 = icmp eq i64 %29, 0
  br i1 %32, label %33, label %_ZSt8_DestroyIN4cvc58internal12NodeTemplateILb1EEEEvPT_.exit.i.i.i.i.i5, !prof !20

33:                                               ; preds = %27
  invoke void @_ZN4cvc58internal4expr9NodeValue15markForDeletionEv(ptr noundef nonnull align 8 dereferenceable(24) %24)
          to label %_ZSt8_DestroyIN4cvc58internal12NodeTemplateILb1EEEEvPT_.exit.i.i.i.i.i5 unwind label %34

34:                                               ; preds = %33
  %35 = landingpad { ptr, i32 }
          catch ptr null
  %36 = extractvalue { ptr, i32 } %35, 0
  tail call void @__clang_call_terminate(ptr %36) #24
  unreachable

_ZSt8_DestroyIN4cvc58internal12NodeTemplateILb1EEEEvPT_.exit.i.i.i.i.i5: ; preds = %33, %27, %.lr.ph.i.i.i.i.i2
  %37 = getelementptr inbounds nuw i8, ptr %.05.i.i.i.i.i3, i64 8
  %.not.i.i.i.i.i6 = icmp eq ptr %37, %23
  br i1 %.not.i.i.i.i.i6, label %_ZSt8_DestroyIPN4cvc58internal12NodeTemplateILb1EEES3_EvT_S5_RSaIT0_E.exit.i.i7, label %.lr.ph.i.i.i.i.i2, !llvm.loop !103

_ZSt8_DestroyIPN4cvc58internal12NodeTemplateILb1EEES3_EvT_S5_RSaIT0_E.exit.i.i7: ; preds = %_ZSt8_DestroyIN4cvc58internal12NodeTemplateILb1EEEEvPT_.exit.i.i.i.i.i5
  store ptr %21, ptr %22, align 8, !tbaa !8
  br label %_ZNSt6vectorIN4cvc58internal12NodeTemplateILb1EEESaIS3_EE5clearEv.exit8

_ZNSt6vectorIN4cvc58internal12NodeTemplateILb1EEESaIS3_EE5clearEv.exit8: ; preds = %_ZNSt6vectorIN4cvc58internal12NodeTemplateILb1EEESaIS3_EE5clearEv.exit, %_ZSt8_DestroyIPN4cvc58internal12NodeTemplateILb1EEES3_EvT_S5_RSaIT0_E.exit.i.i7
  ret void
}